target datalayout = "e-m:e-p270:32:32-p271:32:32-p272:64:64-i64:64-i128:128-f80:128-n8:16:32:64-S128"
target triple = "x86_64-pc-linux-gnu"

%struct.AVCodecContext = type { ptr, i32, i32, ptr, i32, i32, ptr, ptr, ptr, i64, i32, i32, ptr, i32, %struct.AVRational, %struct.AVRational, %struct.AVRational, i32, i32, i32, i32, i32, %struct.AVRational, i32, i32, i32, i32, i32, i32, i32, i32, i32, i32, i32, ptr, ptr, i32, float, float, float, float, float, float, float, float, float, i32, i32, i32, i32, i32, i32, i32, i32, i32, i32, i32, i32, ptr, ptr, ptr, i32, i32, i32, i32, i32, i32, i32, i32, i32, i32, %struct.AVChannelLayout, i32, i32, i32, i32, i32, i32, i32, i32, ptr, i32, i32, i32, float, float, i32, i32, i32, i32, i32, ptr, i64, i64, float, float, i32, i32, ptr, ptr, i32, i32, i32, i32, i32, ptr, ptr, ptr, ptr, i32, i32, [8 x i64], i32, i32, i32, i32, i32, i32, i32, ptr, ptr, i32, i32, i32, i32, i32, i32, i32, i32, i32, i32, ptr, ptr, i32, i32, ptr, ptr, ptr, ptr, i32, i32, i64, i32, i32, i64, ptr, i64, ptr, i32, ptr, i32 }
%struct.AVRational = type { i32, i32 }
%struct.AVChannelLayout = type { i32, i32, %union.anon.1, ptr }
%union.anon.1 = type { i64 }
%struct.CFHDEncContext = type { ptr, %struct.PutBitContext, %struct.PutByteContext, i32, i32, i32, i32, [4 x %struct.PlaneEnc], [1024 x i16], [321 x %struct.Runbook], [513 x %struct.Codebook], ptr, %struct.CFHDEncDSPContext }
%struct.PutBitContext = type { i32, i32, ptr, ptr, ptr }
%struct.PutByteContext = type { ptr, ptr, ptr, i32 }
%struct.PlaneEnc = type { i32, ptr, ptr, [10 x i32], [10 x ptr], [8 x ptr], [3 x [4 x %struct.SubBand]] }
%struct.SubBand = type { i64, i32, i32, i32, i32, i8 }
%struct.Runbook = type { i32, i32, i32 }
%struct.Codebook = type { i32, i32 }
%struct.CFHDEncDSPContext = type { ptr, ptr }

; Function Attrs: cold nounwind optsize uwtable
define internal i32 @cfhd_encode_close(ptr noundef %0) #0 {
  %2 = alloca ptr, align 8
  %3 = alloca ptr, align 8
  %4 = alloca i32, align 4
  %5 = alloca i32, align 4
  %6 = alloca i32, align 4
  %7 = alloca i32, align 4
  store ptr %0, ptr %2, align 8, !tbaa !4
  call void @llvm.lifetime.start.p0(i64 8, ptr %3) #9
  %8 = load ptr, ptr %2, align 8, !tbaa !4
  %9 = getelementptr inbounds nuw %struct.AVCodecContext, ptr %8, i32 0, i32 6
  %10 = load ptr, ptr %9, align 8, !tbaa !9
  store ptr %10, ptr %3, align 8, !tbaa !29
  call void @llvm.lifetime.start.p0(i64 4, ptr %4) #9
  store i32 0, ptr %4, align 4, !tbaa !31
  br label %11

11:                                               ; preds = %67, %1
  %12 = load i32, ptr %4, align 4, !tbaa !31
  %13 = load ptr, ptr %3, align 8, !tbaa !29
  %14 = getelementptr inbounds nuw %struct.CFHDEncContext, ptr %13, i32 0, i32 4
  %15 = load i32, ptr %14, align 4, !tbaa !35
  %16 = icmp slt i32 %12, %15
  br i1 %16, label %18, label %17

17:                                               ; preds = %11
  store i32 2, ptr %5, align 4
  call void @llvm.lifetime.end.p0(i64 4, ptr %4) #9
  br label %70

18:                                               ; preds = %11
  %19 = load ptr, ptr %3, align 8, !tbaa !29
  %20 = getelementptr inbounds nuw %struct.CFHDEncContext, ptr %19, i32 0, i32 7
  %21 = load i32, ptr %4, align 4, !tbaa !31
  %22 = sext i32 %21 to i64
  %23 = getelementptr inbounds [4 x %struct.PlaneEnc], ptr %20, i64 0, i64 %22
  %24 = getelementptr inbounds nuw %struct.PlaneEnc, ptr %23, i32 0, i32 1
  call void @av_freep(ptr noundef %24)
  %25 = load ptr, ptr %3, align 8, !tbaa !29
  %26 = getelementptr inbounds nuw %struct.CFHDEncContext, ptr %25, i32 0, i32 7
  %27 = load i32, ptr %4, align 4, !tbaa !31
  %28 = sext i32 %27 to i64
  %29 = getelementptr inbounds [4 x %struct.PlaneEnc], ptr %26, i64 0, i64 %28
  %30 = getelementptr inbounds nuw %struct.PlaneEnc, ptr %29, i32 0, i32 2
  call void @av_freep(ptr noundef %30)
  call void @llvm.lifetime.start.p0(i64 4, ptr %6) #9
  store i32 0, ptr %6, align 4, !tbaa !31
  br label %31

31:                                               ; preds = %45, %18
  %32 = load i32, ptr %6, align 4, !tbaa !31
  %33 = icmp slt i32 %32, 10
  br i1 %33, label %35, label %34

34:                                               ; preds = %31
  store i32 5, ptr %5, align 4
  call void @llvm.lifetime.end.p0(i64 4, ptr %6) #9
  br label %48

35:                                               ; preds = %31
  %36 = load ptr, ptr %3, align 8, !tbaa !29
  %37 = getelementptr inbounds nuw %struct.CFHDEncContext, ptr %36, i32 0, i32 7
  %38 = load i32, ptr %4, align 4, !tbaa !31
  %39 = sext i32 %38 to i64
  %40 = getelementptr inbounds [4 x %struct.PlaneEnc], ptr %37, i64 0, i64 %39
  %41 = getelementptr inbounds nuw %struct.PlaneEnc, ptr %40, i32 0, i32 4
  %42 = load i32, ptr %6, align 4, !tbaa !31
  %43 = sext i32 %42 to i64
  %44 = getelementptr inbounds [10 x ptr], ptr %41, i64 0, i64 %43
  store ptr null, ptr %44, align 8, !tbaa !45
  br label %45

45:                                               ; preds = %35
  %46 = load i32, ptr %6, align 4, !tbaa !31
  %47 = add nsw i32 %46, 1
  store i32 %47, ptr %6, align 4, !tbaa !31
  br label %31, !llvm.loop !117

48:                                               ; preds = %34
  call void @llvm.lifetime.start.p0(i64 4, ptr %7) #9
  store i32 0, ptr %7, align 4, !tbaa !31
  br label %49

49:                                               ; preds = %63, %48
  %50 = load i32, ptr %7, align 4, !tbaa !31
  %51 = icmp slt i32 %50, 8
  br i1 %51, label %53, label %52

52:                                               ; preds = %49
  store i32 8, ptr %5, align 4
  call void @llvm.lifetime.end.p0(i64 4, ptr %7) #9
  br label %66

53:                                               ; preds = %49
  %54 = load ptr, ptr %3, align 8, !tbaa !29
  %55 = getelementptr inbounds nuw %struct.CFHDEncContext, ptr %54, i32 0, i32 7
  %56 = load i32, ptr %4, align 4, !tbaa !31
  %57 = sext i32 %56 to i64
  %58 = getelementptr inbounds [4 x %struct.PlaneEnc], ptr %55, i64 0, i64 %57
  %59 = getelementptr inbounds nuw %struct.PlaneEnc, ptr %58, i32 0, i32 5
  %60 = load i32, ptr %7, align 4, !tbaa !31
  %61 = sext i32 %60 to i64
  %62 = getelementptr inbounds [8 x ptr], ptr %59, i64 0, i64 %61
  store ptr null, ptr %62, align 8, !tbaa !45
  br label %63

63:                                               ; preds = %53
  %64 = load i32, ptr %7, align 4, !tbaa !31
  %65 = add nsw i32 %64, 1
  store i32 %65, ptr %7, align 4, !tbaa !31
  br label %49, !llvm.loop !118

66:                                               ; preds = %52
  br label %67

67:                                               ; preds = %66
  %68 = load i32, ptr %4, align 4, !tbaa !31
  %69 = add nsw i32 %68, 1
  store i32 %69, ptr %4, align 4, !tbaa !31
  br label %11, !llvm.loop !119

70:                                               ; preds = %17
  %71 = load ptr, ptr %3, align 8, !tbaa !29
  %72 = getelementptr inbounds nuw %struct.CFHDEncContext, ptr %71, i32 0, i32 11
  call void @av_freep(ptr noundef %72)
  store i32 1, ptr %5, align 4
  call void @llvm.lifetime.end.p0(i64 8, ptr %3) #9
  ret i32 0
}