; Function Attrs: cold nounwind optsize uwtable
define internal noundef i32 @cfhd_encode_close(ptr noundef readonly captures(none) %0) #0 {
  %2 = getelementptr inbounds nuw i8, ptr %0, i64 32
  %3 = load ptr, ptr %2, align 8, !tbaa !4
  %4 = getelementptr inbounds nuw i8, ptr %3, i64 76
  %5 = load i32, ptr %4, align 4, !tbaa !30
  %6 = icmp sgt i32 %5, 0
  br i1 %6, label %.lr.ph, label %._crit_edge

.lr.ph:                                           ; preds = %1
  %7 = getelementptr inbounds nuw i8, ptr %3, i64 88
  %invariant.gep = getelementptr i8, ptr %3, i64 152
  br label %.preheader

._crit_edge:                                      ; preds = %.preheader, %1
  %8 = getelementptr inbounds nuw i8, ptr %3, i64 12464
  tail call void @av_freep(ptr noundef nonnull %8) #6
  ret i32 0

.preheader:                                       ; preds = %.lr.ph, %.preheader
  %indvar = phi i64 [ 0, %.lr.ph ], [ %indvar.next, %.preheader ]
  %9 = mul nuw nsw i64 %indvar, 592
  %gep = getelementptr i8, ptr %invariant.gep, i64 %9
  %10 = getelementptr inbounds nuw [4 x %struct.PlaneEnc], ptr %7, i64 0, i64 %indvar
  %11 = getelementptr inbounds nuw i8, ptr %10, i64 8
  tail call void @av_freep(ptr noundef nonnull %11) #6
  %12 = getelementptr inbounds nuw i8, ptr %10, i64 16
  tail call void @av_freep(ptr noundef nonnull %12) #6
  %indvar.next = add nuw nsw i64 %indvar, 1
  tail call void @llvm.memset.p0.i64(ptr noundef nonnull align 8 dereferenceable(144) %gep, i8 0, i64 144, i1 false)
  %13 = load i32, ptr %4, align 4, !tbaa !30
  %14 = sext i32 %13 to i64
  %15 = icmp slt i64 %indvar.next, %14
  br i1 %15, label %.preheader, label %._crit_edge, !llvm.loop !113
}